target datalayout = "e-m:e-p270:32:32-p271:32:32-p272:64:64-i64:64-i128:128-f80:128-n8:16:32:64-S128"
target triple = "x86_64-pc-linux-gnu"

; Function Attrs: mustprogress nounwind uwtable
define dso_local noundef zeroext i1 @_ZN5cmsys11SystemTools16StringStartsWithEPKcS2_(ptr noundef %0, ptr noundef %1) #4 align 2 {
  %3 = alloca i1, align 1
  %4 = alloca ptr, align 8
  %5 = alloca ptr, align 8
  %6 = alloca i64, align 8
  %7 = alloca i64, align 8
  store ptr %0, ptr %4, align 8, !tbaa !13
  store ptr %1, ptr %5, align 8, !tbaa !13
  %8 = load ptr, ptr %4, align 8, !tbaa !13
  %9 = icmp ne ptr %8, null
  br i1 %9, label %10, label %13

10:                                               ; preds = %2
  %11 = load ptr, ptr %5, align 8, !tbaa !13
  %12 = icmp ne ptr %11, null
  br i1 %12, label %14, label %13

13:                                               ; preds = %10, %2
  store i1 false, ptr %3, align 1
  br label %32

14:                                               ; preds = %10
  call void @llvm.lifetime.start.p0(i64 8, ptr %6) #1
  %15 = load ptr, ptr %4, align 8, !tbaa !13
  %16 = call i64 @strlen(ptr noundef %15) #24
  store i64 %16, ptr %6, align 8, !tbaa !15
  call void @llvm.lifetime.start.p0(i64 8, ptr %7) #1
  %17 = load ptr, ptr %5, align 8, !tbaa !13
  %18 = call i64 @strlen(ptr noundef %17) #24
  store i64 %18, ptr %7, align 8, !tbaa !15
  %19 = load i64, ptr %6, align 8, !tbaa !15
  %20 = load i64, ptr %7, align 8, !tbaa !15
  %21 = icmp uge i64 %19, %20
  br i1 %21, label %22, label %29

22:                                               ; preds = %14
  %23 = load ptr, ptr %4, align 8, !tbaa !13
  %24 = load ptr, ptr %5, align 8, !tbaa !13
  %25 = load i64, ptr %7, align 8, !tbaa !15
  %26 = call i32 @strncmp(ptr noundef %23, ptr noundef %24, i64 noundef %25) #24
  %27 = icmp ne i32 %26, 0
  %28 = xor i1 %27, true
  br label %29

29:                                               ; preds = %22, %14
  %30 = phi i1 [ false, %14 ], [ %28, %22 ]
  %31 = select i1 %30, i1 true, i1 false
  store i1 %31, ptr %3, align 1
  call void @llvm.lifetime.end.p0(i64 8, ptr %7) #1
  call void @llvm.lifetime.end.p0(i64 8, ptr %6) #1
  br label %32

32:                                               ; preds = %29, %13
  %33 = load i1, ptr %3, align 1
  ret i1 %33
}